target datalayout = "e-m:e-p270:32:32-p271:32:32-p272:64:64-i64:64-i128:128-f80:128-n8:16:32:64-S128"
target triple = "x86_64-pc-linux-gnu"

%union.pthread_mutex_t = type { %struct.__pthread_mutex_s }
%struct.__pthread_mutex_s = type { i32, i32, i32, i32, i32, i16, i16, %struct.__pthread_internal_list }
%struct.__pthread_internal_list = type { ptr, ptr }
%struct.pmix_tma = type { ptr, ptr, ptr, ptr, ptr, ptr, ptr, ptr }
%struct.pmix_object_t = type { %union.pthread_mutex_t, ptr, i32, %struct.pmix_tma }
%struct.pmix_list_item_t = type { %struct.pmix_object_t, ptr, ptr, i32 }
%struct.pmix_pif_t = type { %struct.pmix_list_item_t, [257 x i8], i32, i16, i16, i32, i32, %struct.sockaddr_storage, i32, i32, [6 x i8], i32 }
%struct.sockaddr_storage = type { i16, [118 x i8], i64 }

; Function Attrs: nounwind uwtable
define internal void @pmix_pif_construct(ptr noundef %0) #0 {
  %2 = alloca ptr, align 8
  store ptr %0, ptr %2, align 8, !tbaa !3
  %3 = load ptr, ptr %2, align 8, !tbaa !3
  %4 = getelementptr inbounds nuw %struct.pmix_pif_t, ptr %3, i32 0, i32 1
  %5 = getelementptr inbounds [257 x i8], ptr %4, i64 0, i64 0
  call void @llvm.memset.p0.i64(ptr align 8 %5, i8 0, i64 257, i1 false)
  %6 = load ptr, ptr %2, align 8, !tbaa !3
  %7 = getelementptr inbounds nuw %struct.pmix_pif_t, ptr %6, i32 0, i32 2
  store i32 -1, ptr %7, align 4, !tbaa !8
  %8 = load ptr, ptr %2, align 8, !tbaa !3
  %9 = getelementptr inbounds nuw %struct.pmix_pif_t, ptr %8, i32 0, i32 3
  store i16 -1, ptr %9, align 8, !tbaa !19
  %10 = load ptr, ptr %2, align 8, !tbaa !3
  %11 = getelementptr inbounds nuw %struct.pmix_pif_t, ptr %10, i32 0, i32 4
  store i16 0, ptr %11, align 2, !tbaa !20
  %12 = load ptr, ptr %2, align 8, !tbaa !3
  %13 = getelementptr inbounds nuw %struct.pmix_pif_t, ptr %12, i32 0, i32 5
  store i32 0, ptr %13, align 4, !tbaa !21
  %14 = load ptr, ptr %2, align 8, !tbaa !3
  %15 = getelementptr inbounds nuw %struct.pmix_pif_t, ptr %14, i32 0, i32 6
  store i32 0, ptr %15, align 8, !tbaa !22
  %16 = load ptr, ptr %2, align 8, !tbaa !3
  %17 = getelementptr inbounds nuw %struct.pmix_pif_t, ptr %16, i32 0, i32 7
  call void @llvm.memset.p0.i64(ptr align 8 %17, i8 0, i64 128, i1 false)
  %18 = load ptr, ptr %2, align 8, !tbaa !3
  %19 = getelementptr inbounds nuw %struct.pmix_pif_t, ptr %18, i32 0, i32 8
  store i32 0, ptr %19, align 8, !tbaa !23
  %20 = load ptr, ptr %2, align 8, !tbaa !3
  %21 = getelementptr inbounds nuw %struct.pmix_pif_t, ptr %20, i32 0, i32 9
  store i32 0, ptr %21, align 4, !tbaa !24
  %22 = load ptr, ptr %2, align 8, !tbaa !3
  %23 = getelementptr inbounds nuw %struct.pmix_pif_t, ptr %22, i32 0, i32 10
  %24 = getelementptr inbounds [6 x i8], ptr %23, i64 0, i64 0
  call void @llvm.memset.p0.i64(ptr align 8 %24, i8 0, i64 6, i1 false)
  %25 = load ptr, ptr %2, align 8, !tbaa !3
  %26 = getelementptr inbounds nuw %struct.pmix_pif_t, ptr %25, i32 0, i32 11
  store i32 0, ptr %26, align 8, !tbaa !25
  ret void
}