; Function Attrs: mustprogress nofree norecurse nosync nounwind willreturn memory(argmem: write) uwtable
define internal void @pmix_pif_construct(ptr noundef writeonly captures(none) initializes((144, 401), (404, 420), (424, 566), (568, 572)) %0) #0 {
  %2 = getelementptr inbounds nuw i8, ptr %0, i64 144
  tail call void @llvm.memset.p0.i64(ptr noundef nonnull align 8 dereferenceable(257) %2, i8 0, i64 257, i1 false)
  %3 = getelementptr inbounds nuw i8, ptr %0, i64 404
  store i32 -1, ptr %3, align 4, !tbaa !3
  %4 = getelementptr inbounds nuw i8, ptr %0, i64 408
  store i16 -1, ptr %4, align 8, !tbaa !17
  %5 = getelementptr inbounds nuw i8, ptr %0, i64 410
  store i16 0, ptr %5, align 2, !tbaa !18
  %6 = getelementptr inbounds nuw i8, ptr %0, i64 412
  store i32 0, ptr %6, align 4, !tbaa !19
  %7 = getelementptr inbounds nuw i8, ptr %0, i64 416
  store i32 0, ptr %7, align 8, !tbaa !20
  %8 = getelementptr inbounds nuw i8, ptr %0, i64 424
  %9 = getelementptr inbounds nuw i8, ptr %0, i64 568
  store i32 0, ptr %9, align 8, !tbaa !21
  tail call void @llvm.memset.p0.i64(ptr noundef nonnull align 8 dereferenceable(142) %8, i8 0, i64 142, i1 false)
  ret void
}